target datalayout = "e-m:e-p270:32:32-p271:32:32-p272:64:64-i64:64-i128:128-f80:128-n8:16:32:64-S128"
target triple = "x86_64-unknown-linux-gnu"

%struct.config = type { ptr, %struct.cliConnInfo, ptr, i32, %struct.cliSSLconfig, i32, i32, i32, i32, i32, i32, i32, i64, i32, i32, i32, i32, i32, i32, i64, i64, ptr, ptr, i32, i32, i32, i32, ptr, ptr, i32, i32, i32, ptr, i32, i32, ptr, ptr, ptr, ptr, i32, i32, i32, i32, %union.pthread_mutex_t, %union.pthread_mutex_t, i32 }
%struct.cliConnInfo = type { ptr, i32, i32, ptr, ptr }
%struct.cliSSLconfig = type { ptr, ptr, ptr, i32, ptr, ptr, ptr, ptr }
%union.pthread_mutex_t = type { %struct.__pthread_mutex_s }
%struct.__pthread_mutex_s = type { i32, i32, i32, i32, i32, i16, i16, %struct.__pthread_internal_list }
%struct.__pthread_internal_list = type { ptr, ptr }
%struct.benchmarkThread = type { i32, i64, ptr }
%struct.timeval = type { i64, i64 }

@config = internal global %struct.config zeroinitializer, align 8
@stderr = external global ptr, align 8
@.str.16424 = private unnamed_addr constant [39 x i8] c"All clients disconnected... aborting.\0A\00", align 1
@.str.16425 = private unnamed_addr constant [13 x i8] c"clients: %d\0D\00", align 1
@stdout = external global ptr, align 8
@.str.16426 = private unnamed_addr constant [5 x i8] c"%*s\0D\00", align 1
@.str.16427 = private unnamed_addr constant [2 x i8] c" \00", align 1
@.str.16428 = private unnamed_addr constant [60 x i8] c"%s: rps=%.1f (overall: %.1f) avg_msec=%.3f (overall: %.3f)\0D\00", align 1

; Function Attrs: nounwind uwtable
define internal i64 @ustime() #0 {
entry:
  %tv = alloca %struct.timeval, align 8
  %ust = alloca i64, align 8
  %call = call i32 @gettimeofday(ptr noundef %tv, ptr noundef null) #12
  %tv_sec = getelementptr inbounds %struct.timeval, ptr %tv, i32 0, i32 0
  %0 = load i64, ptr %tv_sec, align 8
  %mul = mul nsw i64 %0, 1000000
  store i64 %mul, ptr %ust, align 8
  %tv_usec = getelementptr inbounds %struct.timeval, ptr %tv, i32 0, i32 1
  %1 = load i64, ptr %tv_usec, align 8
  %2 = load i64, ptr %ust, align 8
  %add = add nsw i64 %2, %1
  store i64 %add, ptr %ust, align 8
  %3 = load i64, ptr %ust, align 8
  ret i64 %3
}

; Function Attrs: nounwind uwtable
define internal i64 @mstime() #0 {
entry:
  %call = call i64 @ustime()
  %div = sdiv i64 %call, 1000
  ret i64 %div
}

; Function Attrs: nounwind uwtable
define dso_local i32 @showThroughput(ptr noundef %eventLoop, i64 noundef %id, ptr noundef %clientData) #0 {
entry:
  %retval = alloca i32, align 4
  %eventLoop.addr = alloca ptr, align 8
  %id.addr = alloca i64, align 8
  %clientData.addr = alloca ptr, align 8
  %thread = alloca ptr, align 8
  %liveclients = alloca i32, align 4
  %requests_finished = alloca i32, align 4
  %previous_requests_finished = alloca i32, align 4
  %current_tick = alloca i64, align 8
  %atomic-temp = alloca i32, align 4
  %atomic-temp2 = alloca i32, align 4
  %atomic-temp5 = alloca i32, align 4
  %dt = alloca float, align 4
  %rps = alloca float, align 4
  %instantaneous_dt = alloca float, align 4
  %instantaneous_rps = alloca float, align 4
  %.atomictmp = alloca i32, align 4
  %printed_bytes = alloca i32, align 4
  store ptr %eventLoop, ptr %eventLoop.addr, align 8
  store i64 %id, ptr %id.addr, align 8
  store ptr %clientData, ptr %clientData.addr, align 8
  %0 = load ptr, ptr %clientData.addr, align 8
  store ptr %0, ptr %thread, align 8
  store i32 0, ptr %liveclients, align 4
  store i32 0, ptr %requests_finished, align 4
  store i32 0, ptr %previous_requests_finished, align 4
  %call = call i64 @mstime()
  store i64 %call, ptr %current_tick, align 8
  br label %do.body

do.body:                                          ; preds = %entry
  %1 = load atomic i32, ptr getelementptr inbounds (%struct.config, ptr @config, i32 0, i32 6) monotonic, align 4
  store i32 %1, ptr %atomic-temp, align 4
  %2 = load i32, ptr %atomic-temp, align 4
  store i32 %2, ptr %liveclients, align 4
  br label %do.end

do.end:                                           ; preds = %do.body
  br label %do.body1

do.body1:                                         ; preds = %do.end
  %3 = load atomic i32, ptr getelementptr inbounds (%struct.config, ptr @config, i32 0, i32 9) monotonic, align 8
  store i32 %3, ptr %atomic-temp2, align 4
  %4 = load i32, ptr %atomic-temp2, align 4
  store i32 %4, ptr %requests_finished, align 4
  br label %do.end3

do.end3:                                          ; preds = %do.body1
  br label %do.body4

do.body4:                                         ; preds = %do.end3
  %5 = load atomic i32, ptr getelementptr inbounds (%struct.config, ptr @config, i32 0, i32 10) monotonic, align 4
  store i32 %5, ptr %atomic-temp5, align 4
  %6 = load i32, ptr %atomic-temp5, align 4
  store i32 %6, ptr %previous_requests_finished, align 4
  br label %do.end6

do.end6:                                          ; preds = %do.body4
  %7 = load i32, ptr %liveclients, align 4
  %cmp = icmp eq i32 %7, 0
  br i1 %cmp, label %land.lhs.true, label %if.end

land.lhs.true:                                    ; preds = %do.end6
  %8 = load i32, ptr %requests_finished, align 4
  %9 = load i32, ptr getelementptr inbounds (%struct.config, ptr @config, i32 0, i32 7), align 8
  %cmp7 = icmp ne i32 %8, %9
  br i1 %cmp7, label %if.then, label %if.end

if.then:                                          ; preds = %land.lhs.true
  %10 = load ptr, ptr @stderr, align 8
  %call8 = call i32 (ptr, ptr, ...) @fprintf(ptr noundef %10, ptr noundef @.str.16424) #12
  call void @exit(i32 noundef 1) #11
  unreachable

if.end:                                           ; preds = %land.lhs.true, %do.end6
  %11 = load i32, ptr getelementptr inbounds (%struct.config, ptr @config, i32 0, i32 31), align 8
  %tobool = icmp ne i32 %11, 0
  br i1 %tobool, label %land.lhs.true9, label %if.end12

land.lhs.true9:                                   ; preds = %if.end
  %12 = load i32, ptr %requests_finished, align 4
  %13 = load i32, ptr getelementptr inbounds (%struct.config, ptr @config, i32 0, i32 7), align 8
  %cmp10 = icmp sge i32 %12, %13
  br i1 %cmp10, label %if.then11, label %if.end12

if.then11:                                        ; preds = %land.lhs.true9
  %14 = load ptr, ptr %eventLoop.addr, align 8
  call void @aeStop(ptr noundef %14)
  store i32 -1, ptr %retval, align 4
  br label %return

if.end12:                                         ; preds = %land.lhs.true9, %if.end
  %15 = load i32, ptr getelementptr inbounds (%struct.config, ptr @config, i32 0, i32 24), align 4
  %tobool13 = icmp ne i32 %15, 0
  br i1 %tobool13, label %if.then14, label %if.end15

if.then14:                                        ; preds = %if.end12
  store i32 250, ptr %retval, align 4
  br label %return

if.end15:                                         ; preds = %if.end12
  %16 = load ptr, ptr %thread, align 8
  %cmp16 = icmp ne ptr %16, null
  br i1 %cmp16, label %land.lhs.true17, label %if.end20

land.lhs.true17:                                  ; preds = %if.end15
  %17 = load ptr, ptr %thread, align 8
  %index = getelementptr inbounds %struct.benchmarkThread, ptr %17, i32 0, i32 0
  %18 = load i32, ptr %index, align 8
  %cmp18 = icmp ne i32 %18, 0
  br i1 %cmp18, label %if.then19, label %if.end20

if.then19:                                        ; preds = %land.lhs.true17
  store i32 250, ptr %retval, align 4
  br label %return

if.end20:                                         ; preds = %land.lhs.true17, %if.end15
  %19 = load i32, ptr getelementptr inbounds (%struct.config, ptr @config, i32 0, i32 26), align 4
  %cmp21 = icmp eq i32 %19, 1
  br i1 %cmp21, label %if.then22, label %if.end25

if.then22:                                        ; preds = %if.end20
  %atomic-load = load atomic i32, ptr getelementptr inbounds (%struct.config, ptr @config, i32 0, i32 6) seq_cst, align 4
  %call23 = call i32 (ptr, ...) @printf(ptr noundef @.str.16425, i32 noundef %atomic-load)
  %20 = load ptr, ptr @stdout, align 8
  %call24 = call i32 @fflush(ptr noundef %20)
  store i32 250, ptr %retval, align 4
  br label %return

if.end25:                                         ; preds = %if.end20
  %21 = load i64, ptr %current_tick, align 8
  %22 = load i64, ptr getelementptr inbounds (%struct.config, ptr @config, i32 0, i32 19), align 8
  %sub = sub nsw i64 %21, %22
  %conv = sitofp i64 %sub to float
  %conv26 = fpext float %conv to double
  %div = fdiv double %conv26, 1.000000e+03
  %conv27 = fptrunc double %div to float
  store float %conv27, ptr %dt, align 4
  %23 = load i32, ptr %requests_finished, align 4
  %conv28 = sitofp i32 %23 to float
  %24 = load float, ptr %dt, align 4
  %div29 = fdiv float %conv28, %24
  store float %div29, ptr %rps, align 4
  %25 = load i64, ptr %current_tick, align 8
  %26 = load i64, ptr getelementptr inbounds (%struct.config, ptr @config, i32 0, i32 12), align 8
  %sub30 = sub nsw i64 %25, %26
  %conv31 = sitofp i64 %sub30 to float
  %conv32 = fpext float %conv31 to double
  %div33 = fdiv double %conv32, 1.000000e+03
  %conv34 = fptrunc double %div33 to float
  store float %conv34, ptr %instantaneous_dt, align 4
  %27 = load i32, ptr %requests_finished, align 4
  %28 = load i32, ptr %previous_requests_finished, align 4
  %sub35 = sub nsw i32 %27, %28
  %conv36 = sitofp i32 %sub35 to float
  %29 = load float, ptr %instantaneous_dt, align 4
  %div37 = fdiv float %conv36, %29
  store float %div37, ptr %instantaneous_rps, align 4
  %30 = load i64, ptr %current_tick, align 8
  store i64 %30, ptr getelementptr inbounds (%struct.config, ptr @config, i32 0, i32 12), align 8
  %31 = load i32, ptr %requests_finished, align 4
  store i32 %31, ptr %.atomictmp, align 4
  %32 = load i32, ptr %.atomictmp, align 4
  store atomic i32 %32, ptr getelementptr inbounds (%struct.config, ptr @config, i32 0, i32 10) monotonic, align 4
  %33 = load i32, ptr getelementptr inbounds (%struct.config, ptr @config, i32 0, i32 11), align 8
  %call38 = call i32 (ptr, ...) @printf(ptr noundef @.str.16426, i32 noundef %33, ptr noundef @.str.16427)
  %34 = load ptr, ptr getelementptr inbounds (%struct.config, ptr @config, i32 0, i32 21), align 8
  %35 = load float, ptr %instantaneous_rps, align 4
  %conv39 = fpext float %35 to double
  %36 = load float, ptr %rps, align 4
  %conv40 = fpext float %36 to double
  %37 = load ptr, ptr getelementptr inbounds (%struct.config, ptr @config, i32 0, i32 38), align 8
  %call41 = call double @hdr_mean(ptr noundef %37)
  %div42 = fdiv double %call41, 1.000000e+03
  %38 = load ptr, ptr getelementptr inbounds (%struct.config, ptr @config, i32 0, i32 37), align 8
  %call43 = call double @hdr_mean(ptr noundef %38)
  %div44 = fdiv double %call43, 1.000000e+03
  %call45 = call i32 (ptr, ...) @printf(ptr noundef @.str.16428, ptr noundef %34, double noundef %conv39, double noundef %conv40, double noundef %div42, double noundef %div44)
  store i32 %call45, ptr %printed_bytes, align 4
  %39 = load i32, ptr %printed_bytes, align 4
  store i32 %39, ptr getelementptr inbounds (%struct.config, ptr @config, i32 0, i32 11), align 8
  %40 = load ptr, ptr getelementptr inbounds (%struct.config, ptr @config, i32 0, i32 38), align 8
  call void @hdr_reset(ptr noundef %40)
  %41 = load ptr, ptr @stdout, align 8
  %call46 = call i32 @fflush(ptr noundef %41)
  store i32 250, ptr %retval, align 4
  br label %return

return:                                           ; preds = %if.end25, %if.then22, %if.then19, %if.then14, %if.then11
  %42 = load i32, ptr %retval, align 4
  ret i32 %42
}