; Function Attrs: nounwind uwtable
define dso_local noundef i32 @showThroughput(ptr noundef %eventLoop, i64 %id, ptr noundef readonly %clientData) #0 {
entry:
  %tv.i.i = alloca %struct.timeval, align 8
  call void @llvm.lifetime.start.p0(i64 16, ptr nonnull %tv.i.i)
  %call.i.i = call i32 @gettimeofday(ptr noundef nonnull %tv.i.i, ptr noundef null) #22
  %0 = load i64, ptr %tv.i.i, align 8
  %mul.i.i = mul nsw i64 %0, 1000000
  %tv_usec.i.i = getelementptr inbounds i8, ptr %tv.i.i, i64 8
  %1 = load i64, ptr %tv_usec.i.i, align 8
  %add.i.i = add nsw i64 %mul.i.i, %1
  call void @llvm.lifetime.end.p0(i64 16, ptr nonnull %tv.i.i)
  %div.i = sdiv i64 %add.i.i, 1000
  %2 = load atomic i32, ptr getelementptr inbounds (%struct.config, ptr @config, i64 0, i32 6) monotonic, align 4
  %3 = load atomic i32, ptr getelementptr inbounds (%struct.config, ptr @config, i64 0, i32 9) monotonic, align 8
  %4 = load atomic i32, ptr getelementptr inbounds (%struct.config, ptr @config, i64 0, i32 10) monotonic, align 4
  %cmp = icmp ne i32 %2, 0
  %5 = load i32, ptr getelementptr inbounds (%struct.config, ptr @config, i64 0, i32 7), align 8
  %cmp7.not = icmp eq i32 %3, %5
  %or.cond = select i1 %cmp, i1 true, i1 %cmp7.not
  br i1 %or.cond, label %if.end, label %if.then

if.then:                                          ; preds = %entry
  %6 = load ptr, ptr @stderr, align 8
  %7 = tail call i64 @fwrite(ptr nonnull @.str.16424, i64 38, i64 1, ptr %6) #24
  tail call void @exit(i32 noundef 1) #23
  unreachable

if.end:                                           ; preds = %entry
  %8 = load i32, ptr getelementptr inbounds (%struct.config, ptr @config, i64 0, i32 31), align 8
  %tobool.not = icmp eq i32 %8, 0
  %cmp10.not = icmp slt i32 %3, %5
  %or.cond8 = select i1 %tobool.not, i1 true, i1 %cmp10.not
  br i1 %or.cond8, label %if.end12, label %if.then11

if.then11:                                        ; preds = %if.end
  tail call void @aeStop(ptr noundef %eventLoop) #22
  br label %return

if.end12:                                         ; preds = %if.end
  %9 = load i32, ptr getelementptr inbounds (%struct.config, ptr @config, i64 0, i32 24), align 4
  %tobool13.not = icmp eq i32 %9, 0
  br i1 %tobool13.not, label %if.end15, label %return

if.end15:                                         ; preds = %if.end12
  %cmp16.not = icmp eq ptr %clientData, null
  br i1 %cmp16.not, label %if.end20, label %land.lhs.true17

land.lhs.true17:                                  ; preds = %if.end15
  %10 = load i32, ptr %clientData, align 8
  %cmp18.not = icmp eq i32 %10, 0
  br i1 %cmp18.not, label %if.end20, label %return

if.end20:                                         ; preds = %land.lhs.true17, %if.end15
  %11 = load i32, ptr getelementptr inbounds (%struct.config, ptr @config, i64 0, i32 26), align 4
  %cmp21 = icmp eq i32 %11, 1
  br i1 %cmp21, label %if.then22, label %if.end25

if.then22:                                        ; preds = %if.end20
  %atomic-load = load atomic i32, ptr getelementptr inbounds (%struct.config, ptr @config, i64 0, i32 6) seq_cst, align 4
  %call23 = tail call i32 (ptr, ...) @printf(ptr noundef nonnull dereferenceable(1) @.str.16425, i32 noundef %atomic-load)
  %12 = load ptr, ptr @stdout, align 8
  %call24 = tail call i32 @fflush(ptr noundef %12)
  br label %return

if.end25:                                         ; preds = %if.end20
  %13 = load i64, ptr getelementptr inbounds (%struct.config, ptr @config, i64 0, i32 19), align 8
  %sub = sub nsw i64 %div.i, %13
  %conv = sitofp i64 %sub to float
  %conv27 = fdiv float %conv, 1.000000e+03
  %conv28 = sitofp i32 %3 to float
  %div29 = fdiv float %conv28, %conv27
  %14 = load i64, ptr getelementptr inbounds (%struct.config, ptr @config, i64 0, i32 12), align 8
  %sub30 = sub nsw i64 %div.i, %14
  %conv31 = sitofp i64 %sub30 to float
  %conv34 = fdiv float %conv31, 1.000000e+03
  %sub35 = sub nsw i32 %3, %4
  %conv36 = sitofp i32 %sub35 to float
  %div37 = fdiv float %conv36, %conv34
  store i64 %div.i, ptr getelementptr inbounds (%struct.config, ptr @config, i64 0, i32 12), align 8
  store atomic i32 %3, ptr getelementptr inbounds (%struct.config, ptr @config, i64 0, i32 10) monotonic, align 4
  %15 = load i32, ptr getelementptr inbounds (%struct.config, ptr @config, i64 0, i32 11), align 8
  %call38 = tail call i32 (ptr, ...) @printf(ptr noundef nonnull dereferenceable(1) @.str.16426, i32 noundef %15, ptr noundef nonnull @.str.16427)
  %16 = load ptr, ptr getelementptr inbounds (%struct.config, ptr @config, i64 0, i32 21), align 8
  %conv39 = fpext float %div37 to double
  %conv40 = fpext float %div29 to double
  %17 = load ptr, ptr getelementptr inbounds (%struct.config, ptr @config, i64 0, i32 38), align 8
  %call41 = tail call double @hdr_mean(ptr noundef %17) #22
  %div42 = fdiv double %call41, 1.000000e+03
  %18 = load ptr, ptr getelementptr inbounds (%struct.config, ptr @config, i64 0, i32 37), align 8
  %call43 = tail call double @hdr_mean(ptr noundef %18) #22
  %div44 = fdiv double %call43, 1.000000e+03
  %call45 = tail call i32 (ptr, ...) @printf(ptr noundef nonnull dereferenceable(1) @.str.16428, ptr noundef %16, double noundef %conv39, double noundef %conv40, double noundef %div42, double noundef %div44)
  store i32 %call45, ptr getelementptr inbounds (%struct.config, ptr @config, i64 0, i32 11), align 8
  %19 = load ptr, ptr getelementptr inbounds (%struct.config, ptr @config, i64 0, i32 38), align 8
  tail call void @hdr_reset(ptr noundef %19) #22
  %20 = load ptr, ptr @stdout, align 8
  %call46 = tail call i32 @fflush(ptr noundef %20)
  br label %return

return:                                           ; preds = %land.lhs.true17, %if.end12, %if.end25, %if.then22, %if.then11
  %retval.0 = phi i32 [ -1, %if.then11 ], [ 250, %if.then22 ], [ 250, %if.end25 ], [ 250, %if.end12 ], [ 250, %land.lhs.true17 ]
  ret i32 %retval.0
}